target datalayout = "e-m:e-p270:32:32-p271:32:32-p272:64:64-i64:64-i128:128-f80:128-n8:16:32:64-S128"
target triple = "x86_64-pc-linux-gnu"

@.str.11 = private unnamed_addr constant [10 x i8] c"PaperSize\00", align 1

; Function Attrs: inlinehint mustprogress nounwind uwtable
define internal noundef signext i8 @_ZL9U_SUCCESS10UErrorCode(i32 noundef %0) #2 {
  %2 = alloca i32, align 4
  store i32 %0, ptr %2, align 4, !tbaa !15
  %3 = load i32, ptr %2, align 4, !tbaa !15
  %4 = icmp sle i32 %3, 0
  %5 = zext i1 %4 to i8
  ret i8 %5
}

; Function Attrs: inlinehint mustprogress nounwind uwtable
define internal noundef signext i8 @_ZL9U_FAILURE10UErrorCode(i32 noundef %0) #2 {
  %2 = alloca i32, align 4
  store i32 %0, ptr %2, align 4, !tbaa !15
  %3 = load i32, ptr %2, align 4, !tbaa !15
  %4 = icmp sgt i32 %3, 0
  %5 = zext i1 %4 to i8
  ret i8 %5
}

; Function Attrs: mustprogress uwtable
define void @ulocdata_getPaperSize_77(ptr noundef %0, ptr noundef %1, ptr noundef %2, ptr noundef %3) #1 {
  %5 = alloca ptr, align 8
  %6 = alloca ptr, align 8
  %7 = alloca ptr, align 8
  %8 = alloca ptr, align 8
  %9 = alloca ptr, align 8
  %10 = alloca ptr, align 8
  %11 = alloca i32, align 4
  %12 = alloca i32, align 4
  store ptr %0, ptr %5, align 8, !tbaa !17
  store ptr %1, ptr %6, align 8, !tbaa !20
  store ptr %2, ptr %7, align 8, !tbaa !20
  store ptr %3, ptr %8, align 8, !tbaa !22
  call void @llvm.lifetime.start.p0(i64 8, ptr %9) #9
  store ptr null, ptr %9, align 8, !tbaa !39
  call void @llvm.lifetime.start.p0(i64 8, ptr %10) #9
  store ptr null, ptr %10, align 8, !tbaa !20
  call void @llvm.lifetime.start.p0(i64 4, ptr %11) #9
  store i32 0, ptr %11, align 4, !tbaa !14
  %13 = load ptr, ptr %8, align 8, !tbaa !22
  %14 = icmp eq ptr %13, null
  br i1 %14, label %20, label %15

15:                                               ; preds = %4
  %16 = load ptr, ptr %8, align 8, !tbaa !22
  %17 = load i32, ptr %16, align 4, !tbaa !15
  %18 = call noundef signext i8 @_ZL9U_FAILURE10UErrorCode(i32 noundef %17)
  %19 = icmp ne i8 %18, 0
  br i1 %19, label %20, label %21

20:                                               ; preds = %15, %4
  store i32 1, ptr %12, align 4
  br label %49

21:                                               ; preds = %15
  %22 = load ptr, ptr %5, align 8, !tbaa !17
  %23 = load ptr, ptr %8, align 8, !tbaa !22
  %24 = call noundef ptr @_ZN12_GLOBAL__N_130measurementTypeBundleForLocaleEPKcS1_P10UErrorCode(ptr noundef %22, ptr noundef @.str.11, ptr noundef %23)
  store ptr %24, ptr %9, align 8, !tbaa !39
  %25 = load ptr, ptr %9, align 8, !tbaa !39
  %26 = load ptr, ptr %8, align 8, !tbaa !22
  %27 = call ptr @ures_getIntVector_77(ptr noundef %25, ptr noundef %11, ptr noundef %26)
  store ptr %27, ptr %10, align 8, !tbaa !20
  %28 = load ptr, ptr %8, align 8, !tbaa !22
  %29 = load i32, ptr %28, align 4, !tbaa !15
  %30 = call noundef signext i8 @_ZL9U_SUCCESS10UErrorCode(i32 noundef %29)
  %31 = icmp ne i8 %30, 0
  br i1 %31, label %32, label %47

32:                                               ; preds = %21
  %33 = load i32, ptr %11, align 4, !tbaa !14
  %34 = icmp slt i32 %33, 2
  br i1 %34, label %35, label %37

35:                                               ; preds = %32
  %36 = load ptr, ptr %8, align 8, !tbaa !22
  store i32 5, ptr %36, align 4, !tbaa !15
  br label %46

37:                                               ; preds = %32
  %38 = load ptr, ptr %10, align 8, !tbaa !20
  %39 = getelementptr inbounds i32, ptr %38, i64 0
  %40 = load i32, ptr %39, align 4, !tbaa !14
  %41 = load ptr, ptr %6, align 8, !tbaa !20
  store i32 %40, ptr %41, align 4, !tbaa !14
  %42 = load ptr, ptr %10, align 8, !tbaa !20
  %43 = getelementptr inbounds i32, ptr %42, i64 1
  %44 = load i32, ptr %43, align 4, !tbaa !14
  %45 = load ptr, ptr %7, align 8, !tbaa !20
  store i32 %44, ptr %45, align 4, !tbaa !14
  br label %46

46:                                               ; preds = %37, %35
  br label %47

47:                                               ; preds = %46, %21
  %48 = load ptr, ptr %9, align 8, !tbaa !39
  call void @ures_close_77(ptr noundef %48)
  store i32 0, ptr %12, align 4
  br label %49

49:                                               ; preds = %47, %20
  call void @llvm.lifetime.end.p0(i64 4, ptr %11) #9
  call void @llvm.lifetime.end.p0(i64 8, ptr %10) #9
  call void @llvm.lifetime.end.p0(i64 8, ptr %9) #9
  %50 = load i32, ptr %12, align 4
  switch i32 %50, label %52 [
    i32 0, label %51
    i32 1, label %51
  ]

51:                                               ; preds = %49, %49
  ret void

52:                                               ; preds = %49
  unreachable
}