; Function Attrs: mustprogress uwtable
define void @ulocdata_getPaperSize_77(ptr noundef %0, ptr noundef writeonly captures(none) %1, ptr noundef writeonly captures(none) %2, ptr noundef %3) local_unnamed_addr #1 {
  %5 = alloca i32, align 4
  call void @llvm.lifetime.start.p0(i64 4, ptr nonnull %5) #13
  store i32 0, ptr %5, align 4, !tbaa !12
  %6 = icmp eq ptr %3, null
  br i1 %6, label %24, label %7

7:                                                ; preds = %4
  %8 = load i32, ptr %3, align 4, !tbaa !13
  %9 = icmp slt i32 %8, 1
  br i1 %9, label %10, label %24

10:                                               ; preds = %7
  %11 = tail call fastcc noundef ptr @_ZN12_GLOBAL__N_130measurementTypeBundleForLocaleEPKcS1_P10UErrorCode(ptr noundef %0, ptr noundef nonnull @.str.11, ptr noundef %3)
  %12 = call ptr @ures_getIntVector_77(ptr noundef %11, ptr noundef nonnull %5, ptr noundef nonnull %3)
  %13 = load i32, ptr %3, align 4, !tbaa !13
  %14 = icmp sgt i32 %13, 0
  br i1 %14, label %23, label %15

15:                                               ; preds = %10
  %16 = load i32, ptr %5, align 4, !tbaa !12
  %17 = icmp slt i32 %16, 2
  br i1 %17, label %18, label %19

18:                                               ; preds = %15
  store i32 5, ptr %3, align 4, !tbaa !13
  br label %23

19:                                               ; preds = %15
  %20 = load i32, ptr %12, align 4, !tbaa !12
  store i32 %20, ptr %1, align 4, !tbaa !12
  %21 = getelementptr inbounds nuw i8, ptr %12, i64 4
  %22 = load i32, ptr %21, align 4, !tbaa !12
  store i32 %22, ptr %2, align 4, !tbaa !12
  br label %23

23:                                               ; preds = %18, %19, %10
  call void @ures_close_77(ptr noundef %11)
  br label %24

24:                                               ; preds = %4, %7, %23
  call void @llvm.lifetime.end.p0(i64 4, ptr nonnull %5) #13
  ret void
}